	INQUIR	PALX 280	10/15/22  11:38:42	Page 1
	SITS;INQUIR 30	Page 1 	

					.TITLE INQUIR
		020000			.=20000
		000000				A=%0
		000001				B=%1
		000002				C=%2
		000003				D=%3
		000004				E=%4
		000005				F=%5
		000006				P=%6
		000007				PC=%7
						.INSRT SITS;SITMAC
	INQUIR	PALX 280	10/15/22  11:38:42	Page 2
	SITS;SITMAC 6	Page 1 	

		000000			A=%0
		000001			B=%1
		000002			C=%2
		000003			D=%3
		000004			E=%4
		000005			F=%5
		000006			P=%6
		000007			PC=%7
					
					.XCREF A,B,C,D,E,F,P,PC
					
					.MACRO SAVE THINGS
						.IRP  X,<THINGS>
							.IFB X
								TST -(P)
							.IFF
								.IF IDN X,#0
									CLR -(P)
								.IFF
									MOV X,-(P)
								.ENDC
							.ENDC
						.ENDM
					.ENDM
					
					.MACRO REST THINGS
						.IRP X,<THINGS>
							.IF B X
								TST (P)+
							.IFF
								MOV (P)+,X
							.ENDC
						.ENDM
					.ENDM
					
					.MACRO WORDS WORDS
						.IRP X,<WORDS>
							X
						.ENDM
					.ENDM
					
					.MACRO BYTES BYTES
						.IRP X,<BYTES>
							.BYTE X
						.ENDM
					.ENDM
					.MACRO ASCII TEXT
						.ASCII ÔEXTŠ					.ENDM
					.MACRO ASCIZ TEXT
						.ASCIZ ÔEXTŠ					.ENDM
					
					.MACRO FLASK Q,FLAG
	INQUIR	PALX 280	10/15/22  11:38:42	Page 3
	SITS;SITMAC 6	Page 1.1 	

					.IF1
					.PRINT /Q
					FLAG=/
					.TTYMAC F
					FLAG==F
					.ENDM
					.ENDC
					.ENDM
	INQUIR	PALX 280	10/15/22  11:38:42	Page 4
	SITS;SITSS SYMS	Page 1.1 	

						.INSRT SITS;SITSS SYMS
	INQUIR	PALX 280	10/15/22  11:38:42	Page 5
	SITS;INQUIR 30	Page 1.1 	

					
					FILLN0:	ASCIZ ^/FILE HAS LENGTH ZERO	/
	020000	   106		
	020001	   111		
	020002	   114		
	020003	   105		
	020004	   040		
	020005	   110		
	020006	   101		
	020007	   123		
	020010	   040		
	020011	   114		
	020012	   105		
	020013	   116		
	020014	   107		
	020015	   124		
	020016	   110		
	020017	   040		
	020020	   132		
	020021	   105		
	020022	   122		
	020023	   117		
	020024	   011		
	020025	   000		
						.ASCIZ ÆILE HAS LENGTH ZERO	Š					RIGHT:	ASCIZ ^/IS THIS RIGHT? (<CR> INDICATES YES)	/
	020026	   111		
	020027	   123		
	020030	   040		
	020031	   124		
	020032	   110		
	020033	   111		
	020034	   123		
	020035	   040		
	020036	   122		
	020037	   111		
	020040	   107		
	020041	   110		
	020042	   124		
	020043	   077		
	020044	   040		
	020045	   050		
	020046	   074		
	020047	   103		
	020050	   122		
	020051	   076		
	020052	   040		
	020053	   111		
	020054	   116		
	020055	   104		
	020056	   111		
	020057	   103		
	020060	   101		
	020061	   124		
	INQUIR	PALX 280	10/15/22  11:38:42	Page 6
	SITS;INQUIR 30	Page 1.2 	

	020062	   105		
	020063	   123		
	020064	   040		
	020065	   131		
	020066	   105		
	020067	   123		
	020070	   051		
	020071	   011		
	020072	   000		
						.ASCIZ ÉS THIS RIGHT? (<CR> INDICATES YES)	Š					MODE:	ASCIZ ^/MODE: (FOR ASSISTANCE TYPE ?)	/
	020073	   115		
	020074	   117		
	020075	   104		
	020076	   105		
	020077	   072		
	020100	   040		
	020101	   050		
	020102	   106		
	020103	   117		
	020104	   122		
	020105	   040		
	020106	   101		
	020107	   123		
	020110	   123		
	020111	   111		
	020112	   123		
	020113	   124		
	020114	   101		
	020115	   116		
	020116	   103		
	020117	   105		
	020120	   040		
	020121	   124		
	020122	   131		
	020123	   120		
	020124	   105		
	020125	   040		
	020126	   077		
	020127	   051		
	020130	   011		
	020131	   000		
						.ASCIZ ÍODE: (FOR ASSISTANCE TYPE ?)	Š				QUEST:	ASCIZ ^/USERS (L)		LIST USERS I KNOW
				LPUSERS (LP)		LIST USERS ON LPT
				ENTER (E) <USER>	ENTER A NEW USER
				QUIT (Q)		QUIT
				DELETE (D) <USER>	DELETE A USER
				CHANGE (C) <USER>	CHANGE FACTS ABOUT A USER
				WHOIS (W) <USER>	TELL ME ABOUT <USER>
					HELP (?)		HELP	/
	020132	   125		
	020133	   123		
	020134	   105		
	INQUIR	PALX 280	10/15/22  11:38:42	Page 7
	SITS;INQUIR 30	Page 1.3 	

	020135	   122		
	020136	   123		
	020137	   040		
	020140	   050		
	020141	   114		
	020142	   051		
	020143	   011		
	020144	   011		
	020145	   114		
	020146	   111		
	020147	   123		
	020150	   124		
	020151	   040		
	020152	   125		
	020153	   123		
	020154	   105		
	020155	   122		
	020156	   123		
	020157	   040		
	020160	   111		
	020161	   040		
	020162	   113		
	020163	   116		
	020164	   117		
	020165	   127		
	020166	   015		
	020167	   012				.ASCIZ ÕSERS (L)		LIST USERS I KNOW
	020170	   114		
	020171	   120		
	020172	   125		
	020173	   123		
	020174	   105		
	020175	   122		
	020176	   123		
	020177	   040		
	020200	   050		
	020201	   114		
	020202	   120		
	020203	   051		
	020204	   011		
	020205	   011		
	020206	   114		
	020207	   111		
	020210	   123		
	020211	   124		
	020212	   040		
	020213	   125		
	020214	   123		
	020215	   105		
	020216	   122		
	020217	   123		
	020220	   040		
	020221	   117		
	020222	   116		
	INQUIR	PALX 280	10/15/22  11:38:42	Page 8
	SITS;INQUIR 30	Page 1.4 	

	020223	   040		
	020224	   114		
	020225	   120		
	020226	   124		
	020227	   015		
	020230	   012			LPUSERS (LP)		LIST USERS ON LPT
	020231	   105		
	020232	   116		
	020233	   124		
	020234	   105		
	020235	   122		
	020236	   040		
	020237	   050		
	020240	   105		
	020241	   051		
	020242	   040		
	020243	   074		
	020244	   125		
	020245	   123		
	020246	   105		
	020247	   122		
	020250	   076		
	020251	   011		
	020252	   105		
	020253	   116		
	020254	   124		
	020255	   105		
	020256	   122		
	020257	   040		
	020260	   101		
	020261	   040		
	020262	   116		
	020263	   105		
	020264	   127		
	020265	   040		
	020266	   125		
	020267	   123		
	020270	   105		
	020271	   122		
	020272	   015		
	020273	   012			ENTER (E) <USER>	ENTER A NEW USER
	020274	   121		
	020275	   125		
	020276	   111		
	020277	   124		
	020300	   040		
	020301	   050		
	020302	   121		
	020303	   051		
	020304	   011		
	020305	   011		
	020306	   121		
	020307	   125		
	020310	   111		
	INQUIR	PALX 280	10/15/22  11:38:42	Page 9
	SITS;INQUIR 30	Page 1.5 	

	020311	   124		
	020312	   015		
	020313	   012			QUIT (Q)		QUIT
	020314	   104		
	020315	   105		
	020316	   114		
	020317	   105		
	020320	   124		
	020321	   105		
	020322	   040		
	020323	   050		
	020324	   104		
	020325	   051		
	020326	   040		
	020327	   074		
	020330	   125		
	020331	   123		
	020332	   105		
	020333	   122		
	020334	   076		
	020335	   011		
	020336	   104		
	020337	   105		
	020340	   114		
	020341	   105		
	020342	   124		
	020343	   105		
	020344	   040		
	020345	   101		
	020346	   040		
	020347	   125		
	020350	   123		
	020351	   105		
	020352	   122		
	020353	   015		
	020354	   012			DELETE (D) <USER>	DELETE A USER
	020355	   103		
	020356	   110		
	020357	   101		
	020360	   116		
	020361	   107		
	020362	   105		
	020363	   040		
	020364	   050		
	020365	   103		
	020366	   051		
	020367	   040		
	020370	   074		
	020371	   125		
	020372	   123		
	020373	   105		
	020374	   122		
	020375	   076		
	020376	   011		
	INQUIR	PALX 280	10/15/22  11:38:42	Page 10
	SITS;INQUIR 30	Page 1.6 	

	020377	   103		
	020400	   110		
	020401	   101		
	020402	   116		
	020403	   107		
	020404	   105		
	020405	   040		
	020406	   106		
	020407	   101		
	020410	   103		
	020411	   124		
	020412	   123		
	020413	   040		
	020414	   101		
	020415	   102		
	020416	   117		
	020417	   125		
	020420	   124		
	020421	   040		
	020422	   101		
	020423	   040		
	020424	   125		
	020425	   123		
	020426	   105		
	020427	   122		
	020430	   015		
	020431	   012			CHANGE (C) <USER>	CHANGE FACTS ABOUT A USER
	020432	   127		
	020433	   110		
	020434	   117		
	020435	   111		
	020436	   123		
	020437	   040		
	020440	   050		
	020441	   127		
	020442	   051		
	020443	   040		
	020444	   074		
	020445	   125		
	020446	   123		
	020447	   105		
	020450	   122		
	020451	   076		
	020452	   011		
	020453	   124		
	020454	   105		
	020455	   114		
	020456	   114		
	020457	   040		
	020460	   115		
	020461	   105		
	020462	   040		
	020463	   101		
	020464	   102		
	INQUIR	PALX 280	10/15/22  11:38:42	Page 11
	SITS;INQUIR 30	Page 1.7 	

	020465	   117		
	020466	   125		
	020467	   124		
	020470	   040		
	020471	   074		
	020472	   125		
	020473	   123		
	020474	   105		
	020475	   122		
	020476	   076		
	020477	   015		
	020500	   012			WHOIS (W) <USER>	TELL ME ABOUT <USER>
	020501	   110		
	020502	   105		
	020503	   114		
	020504	   120		
	020505	   040		
	020506	   050		
	020507	   077		
	020510	   051		
	020511	   011		
	020512	   011		
	020513	   110		
	020514	   105		
	020515	   114		
	020516	   120		
	020517	   011		
	020520	   000		
					HELP (?)		HELP	Š	020521	   125		
	020522	   123		
	020523	   105		
	020524	   122		
	020525	   040		
	020526	   116		
	020527	   101		
	020530	   115		
	020531	   105		
	020532	   072		
	020533	   000		
					NEWMSG:	.ASCIZ /USER NAME:/
	020534	   106		
	020535	   125		
	020536	   114		
	020537	   114		
	020540	   040		
	020541	   116		
	020542	   101		
	020543	   115		
	020544	   105		
	020545	   072		
	020546	   000		
					PPLNAM:	.ASCIZ /FULL NAME:/
	020547	   104		
	INQUIR	PALX 280	10/15/22  11:38:42	Page 12
	SITS;INQUIR 30	Page 1.8 	

	020550	   111		
	020551	   122		
	020552	   105		
	020553	   103		
	020554	   124		
	020555	   117		
	020556	   122		
	020557	   131		
	020560	   040		
	020561	   116		
	020562	   101		
	020563	   115		
	020564	   105		
	020565	   072		
	020566	   000		
					DIRNAM:	.ASCIZ /DIRECTORY NAME:/
	020567	   104		
	020570	   105		
	020571	   106		
	020572	   101		
	020573	   114		
	020574	   124		
	020575	   040		
	020576	   120		
	020577	   122		
	020600	   117		
	020601	   107		
	020602	   122		
	020603	   101		
	020604	   115		
	020605	   040		
	020606	   050		
	020607	   114		
	020610	   117		
	020611	   107		
	020612	   117		
	020613	   054		
	020614	   104		
	020615	   104		
	020616	   124		
	020617	   051		
	020620	   072		
	020621	   000		
					DEFALT:	.ASCIZ /DEFALT PROGRAM (LOGO,DDT):/
	020622	   106		
	020623	   111		
	020624	   114		
	020625	   105		
	020626	   040		
	020627	   102		
	020630	   105		
	020631	   111		
	020632	   116		
	020633	   107		
	INQUIR	PALX 280	10/15/22  11:38:42	Page 13
	SITS;INQUIR 30	Page 1.9 	

	020634	   040		
	020635	   125		
	020636	   123		
	020637	   105		
	020640	   104		
	020641	   054		
	020642	   040		
	020643	   124		
	020644	   122		
	020645	   131		
	020646	   040		
	020647	   101		
	020650	   107		
	020651	   101		
	020652	   111		
	020653	   116		
	020654	   077		
	020655	   040		
	020656	   050		
	020657	   131		
	020660	   040		
	020661	   117		
	020662	   122		
	020663	   040		
	020664	   116		
	020665	   051		
	020666	   040		
	020667	   000		
					USED:	.ASCIZ /FILE BEING USED, TRY AGAIN? (Y OR N) /
	020670	   125		
	020671	   123		
	020672	   105		
	020673	   122		
	020674	   040		
	020675	   116		
	020676	   101		
	020677	   115		
	020700	   105		
	020701	   040		
	020702	   101		
	020703	   114		
	020704	   122		
	020705	   105		
	020706	   101		
	020707	   104		
	020710	   131		
	020711	   040		
	020712	   105		
	020713	   130		
	020714	   111		
	020715	   123		
	020716	   124		
	020717	   123		
	020720	   011		
	INQUIR	PALX 280	10/15/22  11:38:42	Page 14
	SITS;INQUIR 30	Page 1.10 	

	020721	   000		
					UZRHER:	.ASCIZ /USER NAME ALREADY EXISTS	/
	020722	   116		
	020723	   117		
	020724	   116		
	020725	   055		
	020726	   105		
	020727	   130		
	020730	   111		
	020731	   123		
	020732	   124		
	020733	   101		
	020734	   116		
	020735	   124		
	020736	   040		
	020737	   125		
	020740	   123		
	020741	   105		
	020742	   122		
	020743	   011		
	020744	   000		
					NOLUZ:	.ASCIZ /NON-EXISTANT USER	/
	020745	   114		
	020746	   120		
	020747	   124		
	020750	   040		
	020751	   116		
	020752	   117		
	020753	   124		
	020754	   040		
	020755	   101		
	020756	   126		
	020757	   101		
	020760	   111		
	020761	   114		
	020762	   101		
	020763	   102		
	020764	   114		
	020765	   105		
	020766	   000		
					NOLPT:	.ASCIZ /LPT NOT AVAILABLE/
		020770			.EVEN
	020770	000003			OUTCAP:	3
	020772	000000			CHARNO:	0
	020774	000000			LENGTH:	0
		021316			BLOCK:	.BLKW 150
	021316	000000			NLFN:	0
		021640			NBLOCK:	.BLKW 150
		021660			LZRNAM:	.BLKW 10
		022000			RLNAM:	.BLKW 50
		022120			DRNAM:	.BLKW 50
		022140			DFALT:	.BLKW 10
	022140	000001			CONDIT:	1
	022142	000001			ENTFLG:	1
	INQUIR	PALX 280	10/15/22  11:38:42	Page 15
	SITS;INQUIR 30	Page 1.11 	

	022144	000001			DELFLG:	1
	022146	000001			CHGFLG:	1
	022150	000000			FILCPI:	0
	022152	000000			FILCPO:	0
	022154	000000			USRCAP:	0	;CAP TO USERINFO DIR
					USRDIR:	ASCIZ ^/USRINFO/
	022156	   125		
	022157	   123		
	022160	   122		
	022161	   111		
	022162	   116		
	022163	   106		
	022164	   117		
	022165	   000		
						.ASCIZ ÕSRINFOŠ					FILNAM:	ASCIZ ^/USERS>/
	022166	   125		
	022167	   123		
	022170	   105		
	022171	   122		
	022172	   123		
	022173	   076		
	022174	   000		
						.ASCIZ ÕSERS>Š					OLFIL:	ASCIZ ^/USERS</
	022175	   125		
	022176	   123		
	022177	   105		
	022200	   122		
	022201	   123		
	022202	   074		
	022203	   000		
						.ASCIZ ÕSERS<Š	022204	000001			FRST:	1
		022306				.BLKW 40
					PDL:	
					PAT:
		022506			PATCH:	.BLKW 100
	022506	020521		
	022510	021640		
	022512	000000			TBL1:	.WORD NEWMSG,LZRNAM,0
	022514	020534		
	022516	021660		
	022520	000014				.WORD PPLNAM,RLNAM,12.
	022522	020547		
	022524	022000		
	022526	000042				.WORD DIRNAM,DRNAM,34.
	022530	020567		
	022532	022120		
	022534	000106				.WORD DEFALT,DFALT,70.
	022536	000000				0
		022540			.EVEN
	INQUIR	PALX 280	10/15/22  11:38:42	Page 16
	SITS;INQUIR 30	Page 2 	

					
					.MACRO CMD CMD,ADDR
						.ASCIZ ÃMDŠ						.EVEN
						.IIF B ADDR,CMD
						.IIF NB ADDR,ADDR
					NCMDS==NCMDS+1
					.ENDM
		000000			NCMDS==0
					
					CMDTAB:	CMD C,CHANGE
	022540	   103		
	022541	   000		
						.ASCIZ ÃŠ		022542				.EVEN
						.IIF B CHANGE,C
	022542	023476				.IIF NB CHANGE,CHANGE
		000001			NCMDS==NCMDS+1
						CMD CHANGE
	022544	   103		
	022545	   110		
	022546	   101		
	022547	   116		
	022550	   107		
	022551	   105		
	022552	   000		
						.ASCIZ ÃHANGEŠ		022554				.EVEN
	022554	023476				.IIF B ,CHANGE
						.IIF NB ,
		000002			NCMDS==NCMDS+1
						CMD D,DELETE
	022556	   104		
	022557	   000		
						.ASCIZ ÄŠ		022560				.EVEN
						.IIF B DELETE,D
	022560	023520				.IIF NB DELETE,DELETE
		000003			NCMDS==NCMDS+1
						CMD DELETE
	022562	   104		
	022563	   105		
	022564	   114		
	022565	   105		
	022566	   124		
	022567	   105		
	022570	   000		
						.ASCIZ ÄELETEŠ		022572				.EVEN
	022572	023520				.IIF B ,DELETE
						.IIF NB ,
		000004			NCMDS==NCMDS+1
						CMD E,ENTER
	022574	   105		
	INQUIR	PALX 280	10/15/22  11:38:42	Page 17
	SITS;INQUIR 30	Page 2.1 	

	022575	   000		
						.ASCIZ ÅŠ		022576				.EVEN
						.IIF B ENTER,E
	022576	023542				.IIF NB ENTER,ENTER
		000005			NCMDS==NCMDS+1
						CMD ENTER
	022600	   105		
	022601	   116		
	022602	   124		
	022603	   105		
	022604	   122		
	022605	   000		
						.ASCIZ ÅNTERŠ		022606				.EVEN
	022606	023542				.IIF B ,ENTER
						.IIF NB ,
		000006			NCMDS==NCMDS+1
						CMD LP,LPUSER
	022610	   114		
	022611	   120		
	022612	   000		
						.ASCIZ ÌPŠ		022614				.EVEN
						.IIF B LPUSER,LP
	022614	023602				.IIF NB LPUSER,LPUSER
		000007			NCMDS==NCMDS+1
						CMD LPUSERS
	022616	   114		
	022617	   120		
	022620	   125		
	022621	   123		
	022622	   105		
	022623	   122		
	022624	   123		
	022625	   000		
						.ASCIZ ÌPUSERSŠ		022626				.EVEN
	022626	023602				.IIF B ,LPUSERS
						.IIF NB ,
		000010			NCMDS==NCMDS+1
						CMD L,USERS
	022630	   114		
	022631	   000		
						.ASCIZ ÌŠ		022632				.EVEN
						.IIF B USERS,L
	022632	023704				.IIF NB USERS,USERS
		000011			NCMDS==NCMDS+1
						CMD USERS
	022634	   125		
	022635	   123		
	022636	   105		
	022637	   122		
	INQUIR	PALX 280	10/15/22  11:38:42	Page 18
	SITS;INQUIR 30	Page 2.2 	

	022640	   123		
	022641	   000		
						.ASCIZ ÕSERSŠ		022642				.EVEN
	022642	023704				.IIF B ,USERS
						.IIF NB ,
		000012			NCMDS==NCMDS+1
						CMD Q,QUIT
	022644	   121		
	022645	   000		
						.ASCIZ ÑŠ		022646				.EVEN
						.IIF B QUIT,Q
	022646	025702				.IIF NB QUIT,QUIT
		000013			NCMDS==NCMDS+1
						CMD QUIT
	022650	   121		
	022651	   125		
	022652	   111		
	022653	   124		
	022654	   000		
						.ASCIZ ÑUITŠ		022656				.EVEN
	022656	025702				.IIF B ,QUIT
						.IIF NB ,
		000014			NCMDS==NCMDS+1
						CMD W,WHOIS
	022660	   127		
	022661	   000		
						.ASCIZ ×Š		022662				.EVEN
						.IIF B WHOIS,W
	022662	023750				.IIF NB WHOIS,WHOIS
		000015			NCMDS==NCMDS+1
						CMD WHOIS
	022664	   127		
	022665	   110		
	022666	   117		
	022667	   111		
	022670	   123		
	022671	   000		
						.ASCIZ ×HOISŠ		022672				.EVEN
	022672	023750				.IIF B ,WHOIS
						.IIF NB ,
		000016			NCMDS==NCMDS+1
						CMD ?,HELP
	022674	   077		
	022675	   000		
						.ASCIZ ¿Š		022676				.EVEN
						.IIF B HELP,?
	022676	023564				.IIF NB HELP,HELP
		000017			NCMDS==NCMDS+1
	INQUIR	PALX 280	10/15/22  11:38:42	Page 19
	SITS;INQUIR 30	Page 2.3 	

						CMD HELP
	022700	   110		
	022701	   105		
	022702	   114		
	022703	   120		
	022704	   000		
						.ASCIZ ÈELPŠ		022706				.EVEN
	022706	023564				.IIF B ,HELP
						.IIF NB ,
		000020			NCMDS==NCMDS+1
	INQUIR	PALX 280	10/15/22  11:38:42	Page 20
	SITS;INQUIR 30	Page 3 	

					
	022710	012706	022306		INQUIR:	MOV #PDL,P	;SET UP STACK
	022714	010767	177226			MOV PC,CHGFLG	;SET FLAGS
	022720	010767	177220			MOV PC,DELFLG
	022724	010767	177212			MOV PC,ENTFLG
	022730	005767	177220			TST USRCAP	;ALREADY MUTATED?
	022734	001020				BNE INQUI1	;YES
						SAVE <#-1,#0,#.CPYCP+10>
						.IRP  X,<#-1,#0,#.CPYCP+10>
							.IFB X
								TST -(P)
							.IFF
								.IF IDN X,#0
									CLR -(P)
								.IFF
									MOV X,-(P)
								.ENDC
							.ENDC
						.ENDM
							.IFB #-1
								TST -(P)
							.IFF
								.IF IDN #-1,#0
									CLR -(P)
								.IFF
	022736	012746	177777						MOV #-1,-(P)
								.ENDC
							.ENDC
							.IFB #0
								TST -(P)
							.IFF
								.IF IDN #0,#0
	022742	005046							CLR -(P)
								.IFF
									MOV #0,-(P)
								.ENDC
							.ENDC
							.IFB #.CPYCP+10
								TST -(P)
							.IFF
								.IF IDN #.CPYCP+10,#0
									CLR -(P)
								.IFF
	022744	012746	100410						MOV #.CPYCP+10,-(P)
								.ENDC
							.ENDC
	022750	104206				$INVOK
						REST USRCAP
						.IRP X,<USRCAP>
							.IF B X
								TST (P)+
							.IFF
								MOV (P)+,X
							.ENDC
	INQUIR	PALX 280	10/15/22  11:38:42	Page 21
	SITS;INQUIR 30	Page 3.1 	

						.ENDM
							.IF B USRCAP
								TST (P)+
							.IFF
	022752	012667	177176					MOV (P)+,USRCAP
							.ENDC
						SAVE <#0,#USRDIR,USRCAP>	
						.IRP  X,<#0,#USRDIR,USRCAP>
							.IFB X
								TST -(P)
							.IFF
								.IF IDN X,#0
									CLR -(P)
								.IFF
									MOV X,-(P)
								.ENDC
							.ENDC
						.ENDM
							.IFB #0
								TST -(P)
							.IFF
								.IF IDN #0,#0
	022756	005046							CLR -(P)
								.IFF
									MOV #0,-(P)
								.ENDC
							.ENDC
							.IFB #USRDIR
								TST -(P)
							.IFF
								.IF IDN #USRDIR,#0
									CLR -(P)
								.IFF
	022760	012746	022156						MOV #USRDIR,-(P)
								.ENDC
							.ENDC
							.IFB USRCAP
								TST -(P)
							.IFF
								.IF IDN USRCAP,#0
									CLR -(P)
								.IFF
	022764	016746	177164						MOV USRCAP,-(P)
								.ENDC
							.ENDC
	022770	052716	006000			BIS #.FAMU,(P)
	022774	104206				$INVOK		;MAKE A CAP TO THE USER DIR
					INQUI1:	SAVE <#0,#.TICVM,#<.TTBIS*400>+2>	;SET TTYCAP
						.IRP  X,<#0,#.TICVM,#<.TTBIS*400>+2>
							.IFB X
								TST -(P)
							.IFF
								.IF IDN X,#0
									CLR -(P)
	INQUIR	PALX 280	10/15/22  11:38:42	Page 22
	SITS;INQUIR 30	Page 3.2 	

								.IFF
									MOV X,-(P)
								.ENDC
							.ENDC
						.ENDM
							.IFB #0
								TST -(P)
							.IFF
								.IF IDN #0,#0
	022776	005046							CLR -(P)
								.IFF
									MOV #0,-(P)
								.ENDC
							.ENDC
							.IFB #.TICVM
								TST -(P)
							.IFF
								.IF IDN #.TICVM,#0
									CLR -(P)
								.IFF
	023000	012746	000400						MOV #.TICVM,-(P)
								.ENDC
							.ENDC
							.IFB #<.TTBIS*400>+2
								TST -(P)
							.IFF
								.IF IDN #<.TTBIS*400>+2,#0
									CLR -(P)
								.IFF
	023004	012746	000402						MOV #<.TTBIS*400>+2,-(P)
								.ENDC
							.ENDC
	023010	104206				$INVOK
						SAVE <#-1,#0,USRCAP>	;GET FILE CAP
						.IRP  X,<#-1,#0,USRCAP>
							.IFB X
								TST -(P)
							.IFF
								.IF IDN X,#0
									CLR -(P)
								.IFF
									MOV X,-(P)
								.ENDC
							.ENDC
						.ENDM
							.IFB #-1
								TST -(P)
							.IFF
								.IF IDN #-1,#0
									CLR -(P)
								.IFF
	023012	012746	177777						MOV #-1,-(P)
								.ENDC
							.ENDC
	INQUIR	PALX 280	10/15/22  11:38:42	Page 23
	SITS;INQUIR 30	Page 3.3 	

							.IFB #0
								TST -(P)
							.IFF
								.IF IDN #0,#0
	023016	005046							CLR -(P)
								.IFF
									MOV #0,-(P)
								.ENDC
							.ENDC
							.IFB USRCAP
								TST -(P)
							.IFF
								.IF IDN USRCAP,#0
									CLR -(P)
								.IFF
	023020	016746	177130						MOV USRCAP,-(P)
								.ENDC
							.ENDC
	023024	052716	100400			BIS #.CPYCP,(P)
	023030	104206				$INVOK
						REST FILCPI
						.IRP X,<FILCPI>
							.IF B X
								TST (P)+
							.IFF
								MOV (P)+,X
							.ENDC
						.ENDM
							.IF B FILCPI
								TST (P)+
							.IFF
	023032	012667	177112					MOV (P)+,FILCPI
							.ENDC
						SAVE <#0, #FILNAM,FILCPI>	;MUTATE TO FILE
						.IRP  X,<#0, #FILNAM,FILCPI>
							.IFB X
								TST -(P)
							.IFF
								.IF IDN X,#0
									CLR -(P)
								.IFF
									MOV X,-(P)
								.ENDC
							.ENDC
						.ENDM
							.IFB #0
								TST -(P)
							.IFF
								.IF IDN #0,#0
	023036	005046							CLR -(P)
								.IFF
									MOV #0,-(P)
								.ENDC
							.ENDC
	INQUIR	PALX 280	10/15/22  11:38:42	Page 24
	SITS;INQUIR 30	Page 3.4 	

							.IFB  #FILNAM
								TST -(P)
							.IFF
								.IF IDN  #FILNAM,#0
									CLR -(P)
								.IFF
	023040	012746	022166						MOV  #FILNAM,-(P)
								.ENDC
							.ENDC
							.IFB FILCPI
								TST -(P)
							.IFF
								.IF IDN FILCPI,#0
									CLR -(P)
								.IFF
	023044	016746	177100						MOV FILCPI,-(P)
								.ENDC
							.ENDC
	023050	052716	006000			BIS #.FAMU,(P)
	023054	104006				.INVOK
	023056	001005				BNE NWUZR		;FILE NOT HERE.  START NEW ONE
	023060	062706	000006			ADD #6,P	;CALL FAILED
	023064	004767	000142			JSR PC,FIRSTM
	023070	000443				BR NWUZR1
					NWUZR:	SAVE <#0,#0,FILCPI,#<.CRWRT>+1>
						.IRP  X,<#0,#0,FILCPI,#<.CRWRT>+1>
							.IFB X
								TST -(P)
							.IFF
								.IF IDN X,#0
									CLR -(P)
								.IFF
									MOV X,-(P)
								.ENDC
							.ENDC
						.ENDM
							.IFB #0
								TST -(P)
							.IFF
								.IF IDN #0,#0
	023072	005046							CLR -(P)
								.IFF
									MOV #0,-(P)
								.ENDC
							.ENDC
							.IFB #0
								TST -(P)
							.IFF
								.IF IDN #0,#0
	023074	005046							CLR -(P)
								.IFF
									MOV #0,-(P)
								.ENDC
							.ENDC
	INQUIR	PALX 280	10/15/22  11:38:42	Page 25
	SITS;INQUIR 30	Page 3.5 	

							.IFB FILCPI
								TST -(P)
							.IFF
								.IF IDN FILCPI,#0
									CLR -(P)
								.IFF
	023076	016746	177046						MOV FILCPI,-(P)
								.ENDC
							.ENDC
							.IFB #<.CRWRT>+1
								TST -(P)
							.IFF
								.IF IDN #<.CRWRT>+1,#0
									CLR -(P)
								.IFF
	023102	012746	001001						MOV #<.CRWRT>+1,-(P)
								.ENDC
							.ENDC
	023106	112766	000020	000003		MOVB #20,3(P)
	023114	104221				$MAP
	023116	005367	154656			DEC 0
	023122	001413				BEQ GOUZR
	023124	012700	020622			MOV #USED,A
	023130	004767	002522			JSR PC,TYPEIT
	023134	004767	002466			JSR PC,TYI
	023140	122700	000131			CMPB #'Y,A
	023144	001415				BEQ NWUZR1
	023146	000167	002530			JMP QUIT
	023152	012700	020073		GOUZR:	MOV #MODE,A	;ASK FOR CMD
	023156	004767	002474			JSR PC,TYPEIT
	023162	004767	002452			JSR PC,CRLF
						SAVE FILCPI
						.IRP  X,<FILCPI>
							.IFB X
								TST -(P)
							.IFF
								.IF IDN X,#0
									CLR -(P)
								.IFF
									MOV X,-(P)
								.ENDC
							.ENDC
						.ENDM
							.IFB FILCPI
								TST -(P)
							.IFF
								.IF IDN FILCPI,#0
									CLR -(P)
								.IFF
	023166	016746	176756						MOV FILCPI,-(P)
								.ENDC
							.ENDC
	023172	104013				.WRDI
	023174	004767	000114			JSR PC,CLOOP	;GO PROCESS IT
	INQUIR	PALX 280	10/15/22  11:38:42	Page 26
	SITS;INQUIR 30	Page 3.6 	

	023200	005267	154574		NWUZR1:	INC 0
	023204	010767	176774			MOV PC,FRST
						SAVE <#0,#0,FILCPI>	;DELETE FILE CAP
						.IRP  X,<#0,#0,FILCPI>
							.IFB X
								TST -(P)
							.IFF
								.IF IDN X,#0
									CLR -(P)
								.IFF
									MOV X,-(P)
								.ENDC
							.ENDC
						.ENDM
							.IFB #0
								TST -(P)
							.IFF
								.IF IDN #0,#0
	023210	005046							CLR -(P)
								.IFF
									MOV #0,-(P)
								.ENDC
							.ENDC
							.IFB #0
								TST -(P)
							.IFF
								.IF IDN #0,#0
	023212	005046							CLR -(P)
								.IFF
									MOV #0,-(P)
								.ENDC
							.ENDC
							.IFB FILCPI
								TST -(P)
							.IFF
								.IF IDN FILCPI,#0
									CLR -(P)
								.IFF
	023214	016746	176730						MOV FILCPI,-(P)
								.ENDC
							.ENDC
	023220	052716	100000			BIS #.DELCP,(P)
	023224	104206				$INVOK
	023226	000167	177456			JMP INQUIR	;GET NEXT CMD
					
					
	023232	012767	000001	176700	FIRSTM:	MOV #1,CONDIT	;SO ONLY ONE ENTRY IS MADE PER PASS
	023240	005067	176676			CLR ENTFLG	;GET IN ENTRY MODE
	023244	005067	176734			CLR FRST	;SO YOU DON'T DELETE THE FILE
	023250	012705	022506			MOV #TBL1,F	;SET UP TABLE
	023254	012500				MOV (F)+,A	;MAKE INQUIREY
	023256	004767	002374			JSR PC,TYPEIT
	023262	004767	002352			JSR PC,CRLF
	023266	012504				MOV (F)+,E	;SET UP BUFFER
	INQUIR	PALX 280	10/15/22  11:38:42	Page 27
	SITS;INQUIR 30	Page 3.7 	

	023270	005725				TST (F)+	;SKIP LINE POS
	023272	010403			 	MOV E,D
	023274	012702	000020			MOV #20,C
	023300	004767	002106			JSR PC,GETLIN	;GET HIS ENTRY
	023304	004767	002000			JSR PC,CREATE	;CREATE THE FILE
	023310	000167	001174			JMP OK
	INQUIR	PALX 280	10/15/22  11:38:42	Page 28
	SITS;INQUIR 30	Page 4 	

					
	023314	012704	021320		CLOOP:	MOV #NBLOCK,E	;PROCESS HIS COMMAND
	023320	010403				MOV E,D
	023322	016702	154552			MOV 100,C
	023326	004767	002060			JSR PC,GETLIN
	023332	012700	000020		CLOOPD:	MOV #NCMDS,A
	023336	012701	022540			MOV #CMDTAB,B
	023342	010402			CMDLOP:	MOV E,C
	023344	122122			CMDLO3:	CMPB (B)+,(C)+
	023346	001015				BNE CMDLO1	;NOT THIS CMD
	023350	105711				TSTB (B)	;END OF CMD NAME?
	023352	001024				BNE CMDLO2	;NO, MAYBE THIS CMD
	023354	122712	000040			CMPB #40,(C)	;IS THE CHAR A SEPERATOR?
	023360	002410				BLT CMDLO1	;NOPE, NOT THIS CMD
	023362	005201				INC B		;THIS CMD, GET DISPATCH
	023364	032701	000001			BIT #1,B	;TO .EVEN
	023370	001401				BEQ .+4
	023372	005201				INC B
	023374	004771	000000			JSR  PC,@(B)	;GO EXECUTE CMD
	023400	000207				RTS PC
	023402	105721			CMDLO1:	TSTB (B)+	;END OF CMD NAME?
	023404	001376				BNE CMDLO1	;NOPE
	023406	032701	000001			BIT #1,B	;.EVEN?
	023412	001401				BEQ .+4
	023414	005201				INC B
	023416	005721				TST (B)+	;SKIP DISPATCH ADDR
	023420	077030				SOB A,CMDLOP	;CHECK NEXT ONE IF ANY
	023422	000207				RTS PC
	023424	122712	000040		CMDLO2:	CMPB #40,(C)	;HAVE WE HIT A SEPERATOR?
	023430	002364				BGE CMDLO1	;YES, NOT THIS CMD
	023432	000744				BR CMDLO3	;NO, MAYBE THIS CMD
					
	023434	122722	000040		GETARG:	CMPB #' ,(C)+	;GET RID OF SPACES AFTER CMD
	023440	001775				BEQ GETARG
	023442	012704	021640			MOV #LZRNAM,E	;SET UP BUFFER FOR LZRNAM
	023446	105742				TSTB -(C)	;DID HE GIVE AN ARGUMENT
	023450	001403				BEQ ARGOT	;NO, GO BACK AND START AGAIN
	023452	112224			GTARG1:	MOVB (C)+,(E)+	;TRANSFER ARG TO LZRNAM BUFFER
	023454	001403				BEQ ARGOT1	;FINISHED?
	023456	000775				BR GTARG1	;NO KEEP GOING
	023460	000264			ARGOT:	SEZ	;INDICATE NO USER NAME GIVEN
	023462	000207				RTS PC	;GO BACK
	023464	012702	021640		ARGOT1:	MOV #LZRNAM,C	;PUT START OF BUFFER IN C
	023470	010204				MOV C,E		;AND E
	023472	000244				CLZ	;USER NAME WAS INDICATED
	023474	000207				RTS PC	;RETURN
	INQUIR	PALX 280	10/15/22  11:38:42	Page 29
	SITS;INQUIR 30	Page 5 	

					
	023476	005067	176444		CHANGE:	CLR CHGFLG	;PUT IN CHANGE MODE
	023502	004767	177726			JSR PC,GETARG	;GET USER NAME
	023506	001001				BNE CH		;WAS THERE ONE
	023510	000207				RTS PC	;NO
	023512	004767	000410		CH:	JSR PC,NEWLZR		;YES, GO CHANGE IT
	023516	000207				RTS PC	;RETURN TO TOP
	023520	005067	176420		DELETE:	CLR DELFLG	;PUT IN DELETE MODE
	023524	004767	177704			JSR PC,GETARG	;GET USER NAME
	023530	001001				BNE DE	;WAS THERE ONE
	023532	000207				RTS PC	;NO
	023534	004767	000366		DE:	JSR PC,NEWLZR	;YES, GO DELETE IT
	023540	000207				RTS PC	;RETURN TO TOP
	023542	005067	176374		ENTER:	CLR ENTFLG	;GET IN ENTER MODE
	023546	004767	177662			JSR PC,GETARG	;GET USER NAME
	023552	001001				BNE EN	;WAS THERE ONE
	023554	000207				RTS PC	;NO
	023556	004767	000344		EN:	JSR PC,NEWLZR	;YES, ENTER HIM
	023562	000207				RTS PC	;RETURN TO TOP
	023564	012700	020132		HELP:	MOV #QUEST,A	;TYPEOUT COMANDS
	023570	004767	002062			JSR PC,TYPEIT
	023574	004767	002040			JSR PC,CRLF
	023600	000207				RTS PC	;RETURN
					
					LPUSER:	SAVE OUTCAP
						.IRP  X,<OUTCAP>
							.IFB X
								TST -(P)
							.IFF
								.IF IDN X,#0
									CLR -(P)
								.IFF
									MOV X,-(P)
								.ENDC
							.ENDC
						.ENDM
							.IFB OUTCAP
								TST -(P)
							.IFF
								.IF IDN OUTCAP,#0
									CLR -(P)
								.IFF
	023602	016746	175162						MOV OUTCAP,-(P)
								.ENDC
							.ENDC
						SAVE <#-1,,#.LPCAP*400+0>
						.IRP  X,<#-1,,#.LPCAP*400+0>
							.IFB X
								TST -(P)
							.IFF
								.IF IDN X,#0
									CLR -(P)
								.IFF
									MOV X,-(P)
	INQUIR	PALX 280	10/15/22  11:38:42	Page 30
	SITS;INQUIR 30	Page 5.1 	

								.ENDC
							.ENDC
						.ENDM
							.IFB #-1
								TST -(P)
							.IFF
								.IF IDN #-1,#0
									CLR -(P)
								.IFF
	023606	012746	177777						MOV #-1,-(P)
								.ENDC
							.ENDC
							.IFB 
	023612	005746						TST -(P)
							.IFF
								.IF IDN ,#0
									CLR -(P)
								.IFF
									MOV ,-(P)
								.ENDC
							.ENDC
							.IFB #.LPCAP*400+0
								TST -(P)
							.IFF
								.IF IDN #.LPCAP*400+0,#0
									CLR -(P)
								.IFF
	023614	012746	006000						MOV #.LPCAP*400+0,-(P)
								.ENDC
							.ENDC
	023620	104006				.INVOK
	023622	001006				BNE 1$
	023624	062706	000010			ADD #10,P
	023630	012700	020745			MOV #NOLPT,A
	023634	000167	000146			JMP TYPECR
					1$:	REST OUTCAP	;MAKE OUTCAP LPT CAP
						.IRP X,<OUTCAP>
							.IF B X
								TST (P)+
							.IFF
								MOV (P)+,X
							.ENDC
						.ENDM
							.IF B OUTCAP
								TST (P)+
							.IFF
	023640	012667	175124					MOV (P)+,OUTCAP
							.ENDC
	023644	004767	000034			JSR PC,USERS	;OUTPUT LIST
	023650	012700	000014			MOV #14,A
	023654	004767	001716			JSR PC,TYO
						SAVE <,,OUTCAP>		
						.IRP  X,<,,OUTCAP>
							.IFB X
	INQUIR	PALX 280	10/15/22  11:38:42	Page 31
	SITS;INQUIR 30	Page 5.2 	

								TST -(P)
							.IFF
								.IF IDN X,#0
									CLR -(P)
								.IFF
									MOV X,-(P)
								.ENDC
							.ENDC
						.ENDM
							.IFB 
	023660	005746						TST -(P)
							.IFF
								.IF IDN ,#0
									CLR -(P)
								.IFF
									MOV ,-(P)
								.ENDC
							.ENDC
							.IFB 
	023662	005746						TST -(P)
							.IFF
								.IF IDN ,#0
									CLR -(P)
								.IFF
									MOV ,-(P)
								.ENDC
							.ENDC
							.IFB OUTCAP
								TST -(P)
							.IFF
								.IF IDN OUTCAP,#0
									CLR -(P)
								.IFF
	023664	016746	175100						MOV OUTCAP,-(P)
								.ENDC
							.ENDC
	023670	052716	100000			BIS #.DELCP,(P)
	023674	104206				$INVOK		;FREE THE LPT
						REST OUTCAP	;BACK TO THE TTY
						.IRP X,<OUTCAP>
							.IF B X
								TST (P)+
							.IFF
								MOV (P)+,X
							.ENDC
						.ENDM
							.IF B OUTCAP
								TST (P)+
							.IFF
	023676	012667	175066					MOV (P)+,OUTCAP
							.ENDC
	023702	000207				RTS PC
					
	023704	010767	176230		USERS:	MOV PC,CONDIT	;DON'T TRY TO ENTER
	INQUIR	PALX 280	10/15/22  11:38:42	Page 32
	SITS;INQUIR 30	Page 5.3 	

	023710	004767	000130			JSR PC,WWRIT	;TYPE OUT HEADING LINE
	023714	004767	001162		USER1:	JSR PC,GETBLK	;GET A BLOCK
	023720	005767	175050			TST LENGTH	;IS IT THE LAST ONE?
	023724	001410				BEQ USER2	;YES
	023726	012705	022506			MOV #TBL1,F	;SET UP BUFFER
	023732	005301				DEC B	;SET UP FOR SUB ROUTINE
	023734	004767	001120			JSR PC,WLOP	;GET THE ENTRY SORTED
	023740	004767	000126			JSR PC,WWRIT1	;WRITE IT
	023744	000763				BR USER1	;GO BACK AND GET NEXT ENTRY
	023746	000207			USER2:	RTS PC	;RETURN TO TOP
					
	023750	004767	177460		WHOIS:	JSR PC,GETARG	;GET THE USER NAME
	023754	001001				BNE WHOIS1	;IS THERE ONE?
	023756	000207				RTS PC	;NO
	023760	010204			WHOIS1:	MOV C,E	;RESET BUFFER
	023762	004767	001114			JSR PC,GETBLK
	023766	005767	175002			TST LENGTH
	023772	001403				BEQ WHOIS3
	023774	121124			WHOIS2:	CMPB (B),(E)+
	023776	002770				BLT WHOIS1
	024000	001407				BEQ WSAME
	024002	012700	020722		WHOIS3:	MOV #NOLUZ,A
	024006	004767	001644		TYPECR:	JSR PC,TYPEIT
	024012	004767	001622			JSR PC,CRLF
	024016	000207				RTS PC
					
	024020	105721			WSAME:	TSTB (B)+
	024022	001401				BEQ .+4
	024024	000763				BR WHOIS2
	024026	004767	001014			JSR PC,WFND
	024032	004767	000006			JSR PC,WWRIT
	024036	004767	000030			JSR PC,WWRIT1
	024042	000207				RTS PC
					
	024044	012705	022506		WWRIT:	MOV #TBL1,F
	024050	012500			WWRIT0:	MOV (F)+,A
	024052	001422				BEQ WWRIT2	
	024054	005725				TST (F)+
	024056	004767	001644			JSR PC,CARPOS	;POSITION TH ECARRIAGE
	024062	004767	001570			JSR PC,TYPEIT
	024066	005725				TST (F)+
	024070	000767				BR WWRIT0
	024072	012705	022506		WWRIT1:	MOV #TBL1,F
	024076	005725			WWRIT3:	TST (F)+
	024100	001407				BEQ WWRIT2
	024102	012500				MOV (F)+,A
	024104	004767	001616			JSR PC,CARPOS
	024110	004767	001542			JSR PC,TYPEIT
	024114	005725				TST (F)+
	024116	000767				BR WWRIT3
	024120	004767	001514		WWRIT2:	JSR PC,CRLF
	024124	000207				RTS PC
	INQUIR	PALX 280	10/15/22  11:38:42	Page 33
	SITS;INQUIR 30	Page 6 	

	024126	004767	001156		NEWLZR:	JSR PC,CREATE
	024132	012767	000001	176000		MOV #1,CONDIT	;COND ARG TO ALLOW 1 ENTRY
	024140	012705	022506			MOV #TBL1,F
	024144	062705	000006			ADD #6,F
	024150	004767	000726			JSR PC,GETBLK	;GET FIRST BLOCK FROM OLD FILE
					
	024154	005767	174614		BACK:	TST LENGTH
	024160	001002				BNE .+6
	024162	000167	000322			JMP OK
	024166	121124				CMPB (B),(E)+	;COMP USER NAMES (1 LETTER)
	024170	001410				BEQ SAME	;IF ALIKE GO TO SAME
	024172	003146				BGT OK		;IF OLD ENTRY GREATER PUT IN NEW ONE
	024174	004767	000764			JSR PC,PUTBLK	;PUT AWAY OLD ENTRY
	024200	004767	000676			JSR PC,GETBLK	;GET A NEW ONE
	024204	012704	021640			MOV #LZRNAM,E	;RESET POINTER TO BEG OF INPUT BUFFR
	024210	000761				BR BACK		;TRY AGAIN
					
					
	024212	105721			SAME:	TSTB (B)+	;ARE EQUAL BYTES ZERO??
	024214	001401				BEQ EXISTS	;USER ALREADY IN FILE
	024216	000756				BR BACK		;NO, CMP NEXT LETTER
					
	024220	005767	175722		EXISTS:	TST CHGFLG
	024224	001415				BEQ CHANG
	024226	005767	175712			TST DELFLG
	024232	001521				BEQ DELET
	024234	012700	020670			MOV #UZRHER,A	;TELL HIM USER EXISTS
	024240	004767	001412			JSR PC,TYPEIT
	024244	004767	001370			JSR PC,CRLF
	024250	005067	175664			CLR CONDIT
	024254	000167	000450			JMP FINISH
	024260	004767	000562		CHANG:	JSR PC,WFND
	024264	012705	022506		CHANG1:	MOV #TBL1,F	;GET TO BEGINNING OF TABLE
	024270	062705	000004			ADD #4,F	;JUMP PAST UID ENTRY
	024274	005725			CHLOP1:	TST (F)+
						SAVE <#0,#.TICVM,#<.TTBIS*400>+2>	;SET TTYCAP
						.IRP  X,<#0,#.TICVM,#<.TTBIS*400>+2>
							.IFB X
								TST -(P)
							.IFF
								.IF IDN X,#0
									CLR -(P)
								.IFF
									MOV X,-(P)
								.ENDC
							.ENDC
						.ENDM
							.IFB #0
								TST -(P)
							.IFF
								.IF IDN #0,#0
	024276	005046							CLR -(P)
								.IFF
									MOV #0,-(P)
	INQUIR	PALX 280	10/15/22  11:38:42	Page 34
	SITS;INQUIR 30	Page 6.1 	

								.ENDC
							.ENDC
							.IFB #.TICVM
								TST -(P)
							.IFF
								.IF IDN #.TICVM,#0
									CLR -(P)
								.IFF
	024300	012746	000400						MOV #.TICVM,-(P)
								.ENDC
							.ENDC
							.IFB #<.TTBIS*400>+2
								TST -(P)
							.IFF
								.IF IDN #<.TTBIS*400>+2,#0
									CLR -(P)
								.IFF
	024304	012746	000402						MOV #<.TTBIS*400>+2,-(P)
								.ENDC
							.ENDC
	024310	104206				$INVOK
	024312	005715				TST (F)		;ARE WE FINISHED?
	024314	001461				BEQ CHNGND	;YES
	024316	012700	020026			MOV #RIGHT,A	;ASK HIM IF IT IS RIGHT
	024322	004767	001330			JSR PC,TYPEIT
	024326	004767	001306			JSR PC,CRLF
	024332	021527	020534			CMP (F),#PPLNAM
	024336	001006				BNE CHLOP0
						SAVE <#0,#.TICVM,#<.TTBIC*400>+2>	;SET TTYCAP
						.IRP  X,<#0,#.TICVM,#<.TTBIC*400>+2>
							.IFB X
								TST -(P)
							.IFF
								.IF IDN X,#0
									CLR -(P)
								.IFF
									MOV X,-(P)
								.ENDC
							.ENDC
						.ENDM
							.IFB #0
								TST -(P)
							.IFF
								.IF IDN #0,#0
	024340	005046							CLR -(P)
								.IFF
									MOV #0,-(P)
								.ENDC
							.ENDC
							.IFB #.TICVM
								TST -(P)
							.IFF
								.IF IDN #.TICVM,#0
									CLR -(P)
	INQUIR	PALX 280	10/15/22  11:38:42	Page 35
	SITS;INQUIR 30	Page 6.2 	

								.IFF
	024342	012746	000400						MOV #.TICVM,-(P)
								.ENDC
							.ENDC
							.IFB #<.TTBIC*400>+2
								TST -(P)
							.IFF
								.IF IDN #<.TTBIC*400>+2,#0
									CLR -(P)
								.IFF
	024346	012746	001002						MOV #<.TTBIC*400>+2,-(P)
								.ENDC
							.ENDC
	024352	104206				$INVOK
	024354	012500			CHLOP0:	MOV (F)+,A	;NO. TELL HIM WHAT HE'S CHANGING
	024356	004767	001274			JSR PC,TYPEIT
	024362	004767	001252			JSR PC,CRLF
	024366	012500				MOV (F)+,A	;GIVE HIM THE PRESENT ENTRY
	024370	004767	001262			JSR PC,TYPEIT
	024374	004767	001240			JSR PC,CRLF
	024400	004767	001222			JSR PC,TYI	;GET HIS RESPONSE
	024404	122700	000015			CMPB #15,A
	024410	001731				BEQ CHLOP1	;YES, MOVE TO NEXT ENTRY
	024412	005745				TST -(F)
	024414	011503				MOV (F),D	;SET UP BUFFER
	024416	010304				MOV D,E
	024420	005002				CLR C
	024422	022703	022120			CMP #DFALT,D	;FIND THE BUFFERS LENGTH
	024426	001402				BEQ .+6
	024430	012702	000040			MOV #40,C
	024434	062702	000010			ADD #10,C
	024440	110023				MOVB A,(D)+
	024442	004767	001130			JSR PC,TYO
	024446	005302				DEC C
	024450	004767	000736			JSR PC,GETLIN	;GET THE NEW ENTRY
	024454	024545				CMP -(F),-(F)
	024456	000706				BR CHLOP1	;GO BACK AND RECHECK NEW ENTRY
	024460	004767	000416		CHNGND:	JSR PC,GETBLK	;CLEAN UP AND CLEAR OUT
	024464	005067	175450			CLR CONDIT
	024470	004767	000516			JSR PC,PTBLK2
	024474	000515				BR FINISH
	INQUIR	PALX 280	10/15/22  11:38:42	Page 36
	SITS;INQUIR 30	Page 7 	

	024476	005067	175436		DELET:	CLR CONDIT
	024502	004767	000374			JSR PC,GETBLK	;GET NEXT ENTRY
	024506	000510				BR FINISH	;CLEAN UP AND CLEAR OUT
					
	024510	005767	175424		OK:	TST CONDIT	;HAS NEW ENTRY ALREADY BEEN ENTERED?
	024514	001525				BEQ NQUIT	;YES, DONE
	024516	005767	175420			TST ENTFLG
	024522	001402				BEQ .+6
	024524	000167	000220			JMP NQUIT1
	024530	005067	175404			CLR CONDIT
	024534	005715			LOOP:	TST (F)
	024536	001472				BEQ LOOP2
						SAVE <#0,#.TICVM,#<.TTBIS*400>+2>	;SET TTYCAP
						.IRP  X,<#0,#.TICVM,#<.TTBIS*400>+2>
							.IFB X
								TST -(P)
							.IFF
								.IF IDN X,#0
									CLR -(P)
								.IFF
									MOV X,-(P)
								.ENDC
							.ENDC
						.ENDM
							.IFB #0
								TST -(P)
							.IFF
								.IF IDN #0,#0
	024540	005046							CLR -(P)
								.IFF
									MOV #0,-(P)
								.ENDC
							.ENDC
							.IFB #.TICVM
								TST -(P)
							.IFF
								.IF IDN #.TICVM,#0
									CLR -(P)
								.IFF
	024542	012746	000400						MOV #.TICVM,-(P)
								.ENDC
							.ENDC
							.IFB #<.TTBIS*400>+2
								TST -(P)
							.IFF
								.IF IDN #<.TTBIS*400>+2,#0
									CLR -(P)
								.IFF
	024546	012746	000402						MOV #<.TTBIS*400>+2,-(P)
								.ENDC
							.ENDC
	024552	104206				$INVOK
	024554	021527	020534			CMP (F),#PPLNAM
	024560	001006				BNE LOOP0
	INQUIR	PALX 280	10/15/22  11:38:42	Page 37
	SITS;INQUIR 30	Page 7.1 	

						SAVE <#0,#.TICVM,#<.TTBIC*400>+2>	;SET TTYCAP
						.IRP  X,<#0,#.TICVM,#<.TTBIC*400>+2>
							.IFB X
								TST -(P)
							.IFF
								.IF IDN X,#0
									CLR -(P)
								.IFF
									MOV X,-(P)
								.ENDC
							.ENDC
						.ENDM
							.IFB #0
								TST -(P)
							.IFF
								.IF IDN #0,#0
	024562	005046							CLR -(P)
								.IFF
									MOV #0,-(P)
								.ENDC
							.ENDC
							.IFB #.TICVM
								TST -(P)
							.IFF
								.IF IDN #.TICVM,#0
									CLR -(P)
								.IFF
	024564	012746	000400						MOV #.TICVM,-(P)
								.ENDC
							.ENDC
							.IFB #<.TTBIC*400>+2
								TST -(P)
							.IFF
								.IF IDN #<.TTBIC*400>+2,#0
									CLR -(P)
								.IFF
	024570	012746	001002						MOV #<.TTBIC*400>+2,-(P)
								.ENDC
							.ENDC
	024574	104206				$INVOK
	024576	012500			LOOP0:	MOV (F)+,A	;ASK FOR ENTRY
	024600	004767	001052			JSR PC,TYPEIT
	024604	004767	001030			JSR PC,CRLF
	024610	012503				MOV (F)+,D	;SET UP INPUT BUFFER
	024612	005725				TST (F)+
	024614	010304				MOV D,E
	024616	005002				CLR C
	024620	022703	022120			CMP #DFALT,D	;GET LENGTH OF BUFFER
	024624	001402				BEQ .+6
	024626	012702	000040			MOV #40,C
	024632	062702	000010			ADD #10,C
	024636	004767	000550		LOOP3:	JSR PC,GETLIN	;GET HIS ENTRY
	024642	012700	020026			MOV #RIGHT,A	;ASK HIM IF HE ENTERED IT RIGHT
	024646	004767	001004			JSR PC,TYPEIT
	INQUIR	PALX 280	10/15/22  11:38:42	Page 38
	SITS;INQUIR 30	Page 7.2 	

	024652	004767	000762			JSR PC,CRLF
	024656	010400				MOV E,A
	024660	004767	000772			JSR PC,TYPEIT	;WRITE OUT THE ENTRY YOU HAVE
	024664	004767	000750			JSR PC,CRLF
	024670	004767	000732			JSR PC,TYI	;GET HIS RESPONSE
	024674	122700	000015			CMPB #15,A
	024700	001715				BEQ LOOP	;ITS RIGHT, GET NEXT ENTRY
	024702	004767	000670			JSR PC,TYO
						SAVE E
						.IRP  X,<E>
							.IFB X
								TST -(P)
							.IFF
								.IF IDN X,#0
									CLR -(P)
								.IFF
									MOV X,-(P)
								.ENDC
							.ENDC
						.ENDM
							.IFB E
								TST -(P)
							.IFF
								.IF IDN E,#0
									CLR -(P)
								.IFF
	024706	010446							MOV E,-(P)
								.ENDC
							.ENDC
	024710	160403				SUB E,D
	024712	060302				ADD D,C
						REST D
						.IRP X,<D>
							.IF B X
								TST (P)+
							.IFF
								MOV (P)+,X
							.ENDC
						.ENDM
							.IF B D
								TST (P)+
							.IFF
	024714	012603						MOV (P)+,D
							.ENDC
	024716	110023				MOVB A,(D)+
	024720	005302				DEC C
	024722	000745				BR LOOP3
	024724	004767	000262		LOOP2:	JSR PC,PTBLK2	;PUT AWAY NEWUSER
					
					
	024730	005767	174040		FINISH:	TST	LENGTH
	024734	001415				BEQ	NQUIT
	024736	004767	000222			JSR	PC,PUTBLK	;PUT AWAY REST OF OLD FILE
	024742	004767	000134			JSR	PC,GETBLK
	INQUIR	PALX 280	10/15/22  11:38:42	Page 39
	SITS;INQUIR 30	Page 7.3 	

	024746	000770				BR	FINISH
	INQUIR	PALX 280	10/15/22  11:38:42	Page 40
	SITS;INQUIR 30	Page 8 	

					
	024750	005767	175172		NQUIT1:	TST CHGFLG
	024754	001405				BEQ NQUIT
	024756	005767	175162			TST DELFLG
	024762	001402				BEQ NQUIT
	024764	005726				TST (P)+
	024766	000207				RTS PC
	024770	004767	000170		NQUIT:	JSR	PC,PUTBLK	;PUT AWAY ZERO ENTRY
	024774	005767	175204			TST	FRST
	025000	001416				BEQ	MUMBLE
						SAVE	<#0,#0,FILCPI>	;DELETE OLD FILE
						.IRP  X,<#0,#0,FILCPI>
							.IFB X
								TST -(P)
							.IFF
								.IF IDN X,#0
									CLR -(P)
								.IFF
									MOV X,-(P)
								.ENDC
							.ENDC
						.ENDM
							.IFB #0
								TST -(P)
							.IFF
								.IF IDN #0,#0
	025002	005046							CLR -(P)
								.IFF
									MOV #0,-(P)
								.ENDC
							.ENDC
							.IFB #0
								TST -(P)
							.IFF
								.IF IDN #0,#0
	025004	005046							CLR -(P)
								.IFF
									MOV #0,-(P)
								.ENDC
							.ENDC
							.IFB FILCPI
								TST -(P)
							.IFF
								.IF IDN FILCPI,#0
									CLR -(P)
								.IFF
	025006	016746	175136						MOV FILCPI,-(P)
								.ENDC
							.ENDC
	025012	052716	004000			BIS	#.FADL,(P)
	025016	104206				$INVOK
						SAVE	<#0,#0,FILCPI>	;DELETE CAP TO OLD FILE
						.IRP  X,<#0,#0,FILCPI>
							.IFB X
	INQUIR	PALX 280	10/15/22  11:38:42	Page 41
	SITS;INQUIR 30	Page 8.1 	

								TST -(P)
							.IFF
								.IF IDN X,#0
									CLR -(P)
								.IFF
									MOV X,-(P)
								.ENDC
							.ENDC
						.ENDM
							.IFB #0
								TST -(P)
							.IFF
								.IF IDN #0,#0
	025020	005046							CLR -(P)
								.IFF
									MOV #0,-(P)
								.ENDC
							.ENDC
							.IFB #0
								TST -(P)
							.IFF
								.IF IDN #0,#0
	025022	005046							CLR -(P)
								.IFF
									MOV #0,-(P)
								.ENDC
							.ENDC
							.IFB FILCPI
								TST -(P)
							.IFF
								.IF IDN FILCPI,#0
									CLR -(P)
								.IFF
	025024	016746	175120						MOV FILCPI,-(P)
								.ENDC
							.ENDC
	025030	052716	100000			BIS	#.DELCP,(P)
	025034	104206				$INVOK
	025036	016767	175110	175104	MUMBLE:	MOV FILCPO,FILCPI
	025044	000207				RTS PC
					
	025046	012705	022506		WFND:	MOV #TBL1,F
	025052	160204				SUB C,E
	025054	160401				SUB E,B
	025056	005301				DEC B
	025060	005725			WLOP:	TST (F)+
	025062	001001				BNE WLOP1
	025064	000207				RTS PC
	025066	012500			WLOP1:	MOV (F)+,A
	025070	005725				TST (F)+
	025072	005201			WLOOP:	INC B
	025074	111120				MOVB (B),(A)+
	025076	001375				BNE WLOOP
	025100	000767				BR WLOP
	INQUIR	PALX 280	10/15/22  11:38:42	Page 42
	SITS;INQUIR 30	Page 8.2 	

					
	INQUIR	PALX 280	10/15/22  11:38:42	Page 43
	SITS;INQUIR 30	Page 9 	

					GETBLK:	SAVE	FILCPI	;GET ENTRY LENGTH
						.IRP  X,<FILCPI>
							.IFB X
								TST -(P)
							.IFF
								.IF IDN X,#0
									CLR -(P)
								.IFF
									MOV X,-(P)
								.ENDC
							.ENDC
						.ENDM
							.IFB FILCPI
								TST -(P)
							.IFF
								.IF IDN FILCPI,#0
									CLR -(P)
								.IFF
	025102	016746	175042						MOV FILCPI,-(P)
								.ENDC
							.ENDC
	025106	104013				.WRDI
	025110	001416				BEQ GOOF
						REST LENGTH	;GET LENGTH IN LENGTH AND F
						.IRP X,<LENGTH>
							.IF B X
								TST (P)+
							.IFF
								MOV (P)+,X
							.ENDC
						.ENDM
							.IF B LENGTH
								TST (P)+
							.IFF
	025112	012667	173656					MOV (P)+,LENGTH
							.ENDC
	025116	001001				BNE GTBLK1	;ZERO LENGTH, PUT IN NEW ENTRY OR QUIT
	025120	000207				RTS PC
					GTBLK1:	SAVE	<#BLOCK,LENGTH,FILCPI>	;GET ENTRY
						.IRP  X,<#BLOCK,LENGTH,FILCPI>
							.IFB X
								TST -(P)
							.IFF
								.IF IDN X,#0
									CLR -(P)
								.IFF
									MOV X,-(P)
								.ENDC
							.ENDC
						.ENDM
							.IFB #BLOCK
								TST -(P)
							.IFF
								.IF IDN #BLOCK,#0
	INQUIR	PALX 280	10/15/22  11:38:42	Page 44
	SITS;INQUIR 30	Page 9.1 	

									CLR -(P)
								.IFF
	025122	012746	020776						MOV #BLOCK,-(P)
								.ENDC
							.ENDC
							.IFB LENGTH
								TST -(P)
							.IFF
								.IF IDN LENGTH,#0
									CLR -(P)
								.IFF
	025126	016746	173642						MOV LENGTH,-(P)
								.ENDC
							.ENDC
							.IFB FILCPI
								TST -(P)
							.IFF
								.IF IDN FILCPI,#0
									CLR -(P)
								.IFF
	025132	016746	175012						MOV FILCPI,-(P)
								.ENDC
							.ENDC
	025136	104217				$BLKI
	025140	012701	020776			MOV	#BLOCK,B
	025144	000207				RTS	PC
					
	025146	012700	020000		GOOF:	MOV #FILLN0,A	;TELL HIM FILE HAS ZERO LENGTH
	025152	004767	000500			JSR PC,TYPEIT
	025156	004767	000456			JSR PC,CRLF
	025162	000207				RTS PC
					
					
					PUTBLK:	SAVE	<#LENGTH,LENGTH,FILCPO>
						.IRP  X,<#LENGTH,LENGTH,FILCPO>
							.IFB X
								TST -(P)
							.IFF
								.IF IDN X,#0
									CLR -(P)
								.IFF
									MOV X,-(P)
								.ENDC
							.ENDC
						.ENDM
							.IFB #LENGTH
								TST -(P)
							.IFF
								.IF IDN #LENGTH,#0
									CLR -(P)
								.IFF
	025164	012746	020774						MOV #LENGTH,-(P)
								.ENDC
							.ENDC
	INQUIR	PALX 280	10/15/22  11:38:42	Page 45
	SITS;INQUIR 30	Page 9.2 	

							.IFB LENGTH
								TST -(P)
							.IFF
								.IF IDN LENGTH,#0
									CLR -(P)
								.IFF
	025170	016746	173600						MOV LENGTH,-(P)
								.ENDC
							.ENDC
							.IFB FILCPO
								TST -(P)
							.IFF
								.IF IDN FILCPO,#0
									CLR -(P)
								.IFF
	025174	016746	174752						MOV FILCPO,-(P)
								.ENDC
							.ENDC
	025200	162766	000002	000002		SUB	#2,2(P)
	025206	104220				$BLKO
	025210	000207				RTS	PC
					
					
	025212	012704	021320		PTBLK2:	MOV #NBLOCK,E
	025216	012705	022506			MOV #TBL1,F
	025222	005715			LUPE:	TST (F)
	025224	001406				BEQ LUPE2	;MOVE ALL SMALL BUFFERS INTO ONE
	025226	005725				TST (F)+
	025230	012500				MOV (F)+,A
	025232	005725				TST (F)+
	025234	112024			LUPE1:	MOVB (A)+,(E)+
	025236	001376				BNE LUPE1
	025240	000770				BR LUPE
	025242	012705	021320		LUPE2:	MOV #NBLOCK,F	;FIND THE LENGTH OF THE NEW BLOCK
	025246	160405				SUB E,F
	025250	010567	174042			MOV F,NLFN
	025254	042767	000001	174034		BIC #1,NLFN
						SAVE	<#NLFN,NLFN,FILCPO>
						.IRP  X,<#NLFN,NLFN,FILCPO>
							.IFB X
								TST -(P)
							.IFF
								.IF IDN X,#0
									CLR -(P)
								.IFF
									MOV X,-(P)
								.ENDC
							.ENDC
						.ENDM
							.IFB #NLFN
								TST -(P)
							.IFF
								.IF IDN #NLFN,#0
									CLR -(P)
	INQUIR	PALX 280	10/15/22  11:38:42	Page 46
	SITS;INQUIR 30	Page 9.3 	

								.IFF
	025262	012746	021316						MOV #NLFN,-(P)
								.ENDC
							.ENDC
							.IFB NLFN
								TST -(P)
							.IFF
								.IF IDN NLFN,#0
									CLR -(P)
								.IFF
	025266	016746	174024						MOV NLFN,-(P)
								.ENDC
							.ENDC
							.IFB FILCPO
								TST -(P)
							.IFF
								.IF IDN FILCPO,#0
									CLR -(P)
								.IFF
	025272	016746	174654						MOV FILCPO,-(P)
								.ENDC
							.ENDC
	025276	162766	000002	000002		SUB	#2,2(P)
	025304	104220				$BLKO		;PUT AWAY NEW BLOCK
	025306	000207				RTS	PC
					
					CREATE:	SAVE	<#-1,#0,USRCAP>
						.IRP  X,<#-1,#0,USRCAP>
							.IFB X
								TST -(P)
							.IFF
								.IF IDN X,#0
									CLR -(P)
								.IFF
									MOV X,-(P)
								.ENDC
							.ENDC
						.ENDM
							.IFB #-1
								TST -(P)
							.IFF
								.IF IDN #-1,#0
									CLR -(P)
								.IFF
	025310	012746	177777						MOV #-1,-(P)
								.ENDC
							.ENDC
							.IFB #0
								TST -(P)
							.IFF
								.IF IDN #0,#0
	025314	005046							CLR -(P)
								.IFF
									MOV #0,-(P)
	INQUIR	PALX 280	10/15/22  11:38:42	Page 47
	SITS;INQUIR 30	Page 9.4 	

								.ENDC
							.ENDC
							.IFB USRCAP
								TST -(P)
							.IFF
								.IF IDN USRCAP,#0
									CLR -(P)
								.IFF
	025316	016746	174632						MOV USRCAP,-(P)
								.ENDC
							.ENDC
	025322	052716	100400			BIS #.CPYCP,(P)
	025326	104206				$INVOK
						REST	FILCPO
						.IRP X,<FILCPO>
							.IF B X
								TST (P)+
							.IFF
								MOV (P)+,X
							.ENDC
						.ENDM
							.IF B FILCPO
								TST (P)+
							.IFF
	025330	012667	174616					MOV (P)+,FILCPO
							.ENDC
						SAVE	<#0,#FILNAM,FILCPO>	;CREATE NEW FILE
						.IRP  X,<#0,#FILNAM,FILCPO>
							.IFB X
								TST -(P)
							.IFF
								.IF IDN X,#0
									CLR -(P)
								.IFF
									MOV X,-(P)
								.ENDC
							.ENDC
						.ENDM
							.IFB #0
								TST -(P)
							.IFF
								.IF IDN #0,#0
	025334	005046							CLR -(P)
								.IFF
									MOV #0,-(P)
								.ENDC
							.ENDC
							.IFB #FILNAM
								TST -(P)
							.IFF
								.IF IDN #FILNAM,#0
									CLR -(P)
								.IFF
	025336	012746	022166						MOV #FILNAM,-(P)
	INQUIR	PALX 280	10/15/22  11:38:42	Page 48
	SITS;INQUIR 30	Page 9.5 	

								.ENDC
							.ENDC
							.IFB FILCPO
								TST -(P)
							.IFF
								.IF IDN FILCPO,#0
									CLR -(P)
								.IFF
	025342	016746	174604						MOV FILCPO,-(P)
								.ENDC
							.ENDC
	025346	052716	005000			BIS	#.FAAD,(P)
	025352	104206				$INVOK
						SAVE <#0,FILCPO>
						.IRP  X,<#0,FILCPO>
							.IFB X
								TST -(P)
							.IFF
								.IF IDN X,#0
									CLR -(P)
								.IFF
									MOV X,-(P)
								.ENDC
							.ENDC
						.ENDM
							.IFB #0
								TST -(P)
							.IFF
								.IF IDN #0,#0
	025354	005046							CLR -(P)
								.IFF
									MOV #0,-(P)
								.ENDC
							.ENDC
							.IFB FILCPO
								TST -(P)
							.IFF
								.IF IDN FILCPO,#0
									CLR -(P)
								.IFF
	025356	016746	174570						MOV FILCPO,-(P)
								.ENDC
							.ENDC
	025362	104214				$WRDO
						SAVE <#0,#0,FILCPO,#<.CRWRT>+1>
						.IRP  X,<#0,#0,FILCPO,#<.CRWRT>+1>
							.IFB X
								TST -(P)
							.IFF
								.IF IDN X,#0
									CLR -(P)
								.IFF
									MOV X,-(P)
								.ENDC
	INQUIR	PALX 280	10/15/22  11:38:42	Page 49
	SITS;INQUIR 30	Page 9.6 	

							.ENDC
						.ENDM
							.IFB #0
								TST -(P)
							.IFF
								.IF IDN #0,#0
	025364	005046							CLR -(P)
								.IFF
									MOV #0,-(P)
								.ENDC
							.ENDC
							.IFB #0
								TST -(P)
							.IFF
								.IF IDN #0,#0
	025366	005046							CLR -(P)
								.IFF
									MOV #0,-(P)
								.ENDC
							.ENDC
							.IFB FILCPO
								TST -(P)
							.IFF
								.IF IDN FILCPO,#0
									CLR -(P)
								.IFF
	025370	016746	174556						MOV FILCPO,-(P)
								.ENDC
							.ENDC
							.IFB #<.CRWRT>+1
								TST -(P)
							.IFF
								.IF IDN #<.CRWRT>+1,#0
									CLR -(P)
								.IFF
	025374	012746	001001						MOV #<.CRWRT>+1,-(P)
								.ENDC
							.ENDC
	025400	112766	000020	000003		MOVB #20,3(P)
	025406	104221				$MAP
	025410	000207				RTS	PC
	INQUIR	PALX 280	10/15/22  11:38:42	Page 50
	SITS;INQUIR 30	Page 10 	

					;READ A LINE FROM TTY INTO THE LOGLIN BUFFER
					;RETURN WITH Z CLEAR IF ANYTHING TYPED BEFORE <RETURN>
					;AFTER LAST CHAR THERE IS A ZERO IN THE BUFFER
					;D POINTS TO LAST CHAR IN THE BUFFER
					
					
	025412	005302			GETLIN:	DEC	C
					
	025414	004767	000050		GETLI3:	JSR PC,GETLI1	;GET A NON-RUBOUT
					
					
	025420	022700	000015		GETLI7:	CMP #15,A	;RETURN?
	025424	001414				BEQ GETLI2
	025426	004767	000144			JSR PC,TYO
	025432	110023				MOVB A,(D)+	;SAVE TEH CHARACTER
	025434	077211				SOB C,GETLI3
					
					
	025436	004767	000026		GETLI4:	JSR PC,GETLI1	;GET A NON-RUBOUT
	025442	022700	000015			CMP #15,A
	025446	001403				BEQ GETLI2
	025450	005702				TST C		;DID HE RUBOUT?
	025452	001360				BNE GETLI3
	025454	000770				BR GETLI4
					
					
	025456	004767	000156		GETLI2:	JSR PC,CRLF
	025462	105013				CLRB (D)
	025464	020304				CMP D,E		;WAS ANYTHING TYPED?
	025466	000207				RTS PC
					
					
					
					
	025470	004767	000132		GETLI1:	JSR PC,TYI	;GET A CHAR
	025474	122700	000177			CMPB #177,A	;IS IT A RUBOUT?
	025500	001401				BEQ GETL10
	025502	000207				RTS PC		;NO, RETURN WITH IT
					
					
	025504	020403			GETL10:	CMP E,D		;ANYTHING TO RUB?
	025506	001770				BEQ GETLI1	;NOPE
	025510	004767	000044			JSR PC,SLTYPE	;TYPE THE OPEN SLASH
					
					
	025514	114300			GETLI5:	MOVB -(D),A
	025516	004767	000054			JSR PC,TYO	;ECHO RUBBED OUT CHAR
	025522	005202				INC C		;ONE MORE SPACE IN BUFFER
	025524	020403				CMP E,D		;ALL RUBBED OUT?
	025526	001407				BEQ GETLI6	;MAKE OFF HE HIT OTHER CHAR
	025530	004767	000072			JSR PC,TYI	;GET NEXT CHAR
	025534	022700	000177			CMP #177,A	;IS IT ANOTHER RUBBOUT?
	025540	001765				BEQ GETLI5
	025542	000167	000012			JMP SLTYPE
	INQUIR	PALX 280	10/15/22  11:38:42	Page 51
	SITS;INQUIR 30	Page 10.1 	

					
					
	025546	004767	000006		GETLI6:	JSR PC,SLTYPE	;END SLASH
	025552	004767	000062			JSR PC,CRLF
	025556	000744				BR GETLI1
					
					
					
					
					SLTYPE:	SAVE <A>
						.IRP  X,<A>
							.IFB X
								TST -(P)
							.IFF
								.IF IDN X,#0
									CLR -(P)
								.IFF
									MOV X,-(P)
								.ENDC
							.ENDC
						.ENDM
							.IFB A
								TST -(P)
							.IFF
								.IF IDN A,#0
									CLR -(P)
								.IFF
	025560	010046							MOV A,-(P)
								.ENDC
							.ENDC
	025562	112700	000134			MOVB #'\,A
	025566	004767	000004			JSR PC,TYO	;TELL HIM HE IS RUBBING OUT
						REST <A>
						.IRP X,<A>
							.IF B X
								TST (P)+
							.IFF
								MOV (P)+,X
							.ENDC
						.ENDM
							.IF B A
								TST (P)+
							.IFF
	025572	012600						MOV (P)+,A
							.ENDC
	025574	000207				RTS PC
	INQUIR	PALX 280	10/15/22  11:38:42	Page 52
	SITS;INQUIR 30	Page 11 	

					TYO:	SAVE <A,OUTCAP>
						.IRP  X,<A,OUTCAP>
							.IFB X
								TST -(P)
							.IFF
								.IF IDN X,#0
									CLR -(P)
								.IFF
									MOV X,-(P)
								.ENDC
							.ENDC
						.ENDM
							.IFB A
								TST -(P)
							.IFF
								.IF IDN A,#0
									CLR -(P)
								.IFF
	025576	010046							MOV A,-(P)
								.ENDC
							.ENDC
							.IFB OUTCAP
								TST -(P)
							.IFF
								.IF IDN OUTCAP,#0
									CLR -(P)
								.IFF
	025600	016746	173164						MOV OUTCAP,-(P)
								.ENDC
							.ENDC
	025604	104216				$BYTO		;TYPE THE CHARACTER
	025606	005267	173160			INC CHARNO
	025612	022700	000015			CMP #15,A
	025616	001002				BNE 1$
	025620	005067	173146			CLR CHARNO
	025624	000207			1$:	RTS PC
					
					TYI:	SAVE <#2>
						.IRP  X,<#2>
							.IFB X
								TST -(P)
							.IFF
								.IF IDN X,#0
									CLR -(P)
								.IFF
									MOV X,-(P)
								.ENDC
							.ENDC
						.ENDM
							.IFB #2
								TST -(P)
							.IFF
								.IF IDN #2,#0
									CLR -(P)
	INQUIR	PALX 280	10/15/22  11:38:42	Page 53
	SITS;INQUIR 30	Page 11.1 	

								.IFF
	025626	012746	000002						MOV #2,-(P)
								.ENDC
							.ENDC
	025632	104215				$BYTI		;GET AN INPUT CHARACTER
						REST <A>	;PUT IT IN A
						.IRP X,<A>
							.IF B X
								TST (P)+
							.IFF
								MOV (P)+,X
							.ENDC
						.ENDM
							.IF B A
								TST (P)+
							.IFF
	025634	012600						MOV (P)+,A
							.ENDC
	025636	000207				RTS PC
					
					CRLF:	SAVE <A>
						.IRP  X,<A>
							.IFB X
								TST -(P)
							.IFF
								.IF IDN X,#0
									CLR -(P)
								.IFF
									MOV X,-(P)
								.ENDC
							.ENDC
						.ENDM
							.IFB A
								TST -(P)
							.IFF
								.IF IDN A,#0
									CLR -(P)
								.IFF
	025640	010046							MOV A,-(P)
								.ENDC
							.ENDC
	025642	012700	000015			MOV #15,A
	025646	004767	177724			JSR PC,TYO
						REST <A>
						.IRP X,<A>
							.IF B X
								TST (P)+
							.IFF
								MOV (P)+,X
							.ENDC
						.ENDM
							.IF B A
								TST (P)+
							.IFF
	INQUIR	PALX 280	10/15/22  11:38:42	Page 54
	SITS;INQUIR 30	Page 11.2 	

	025652	012600						MOV (P)+,A
							.ENDC
	025654	000207				RTS PC
					
					TYPEIT:	SAVE <A>
						.IRP  X,<A>
							.IFB X
								TST -(P)
							.IFF
								.IF IDN X,#0
									CLR -(P)
								.IFF
									MOV X,-(P)
								.ENDC
							.ENDC
						.ENDM
							.IFB A
								TST -(P)
							.IFF
								.IF IDN A,#0
									CLR -(P)
								.IFF
	025656	010046							MOV A,-(P)
								.ENDC
							.ENDC
	025660	117600	000000		TYPEI2:	MOVB @(P),A
	025664	001404				BEQ TYPEI1
	025666	004767	177704			JSR PC,TYO
	025672	005216				INC (P)
	025674	000771				BR TYPEI2
					
					TYPEI1:	REST <A>
						.IRP X,<A>
							.IF B X
								TST (P)+
							.IFF
								MOV (P)+,X
							.ENDC
						.ENDM
							.IF B A
								TST (P)+
							.IFF
	025676	012600						MOV (P)+,A
							.ENDC
	025700	000207				RTS PC
					
	025702	005267	152072		QUIT:	INC 0
						SAVE	<#0,#0,FILCPI>
						.IRP  X,<#0,#0,FILCPI>
							.IFB X
								TST -(P)
							.IFF
								.IF IDN X,#0
									CLR -(P)
	INQUIR	PALX 280	10/15/22  11:38:42	Page 55
	SITS;INQUIR 30	Page 11.3 	

								.IFF
									MOV X,-(P)
								.ENDC
							.ENDC
						.ENDM
							.IFB #0
								TST -(P)
							.IFF
								.IF IDN #0,#0
	025706	005046							CLR -(P)
								.IFF
									MOV #0,-(P)
								.ENDC
							.ENDC
							.IFB #0
								TST -(P)
							.IFF
								.IF IDN #0,#0
	025710	005046							CLR -(P)
								.IFF
									MOV #0,-(P)
								.ENDC
							.ENDC
							.IFB FILCPI
								TST -(P)
							.IFF
								.IF IDN FILCPI,#0
									CLR -(P)
								.IFF
	025712	016746	174232						MOV FILCPI,-(P)
								.ENDC
							.ENDC
	025716	052716	100000			BIS	#.DELCP,(P)
	025722	104206				$INVOK
	025724	000003				BPT
					
					CARPOS:	SAVE A
						.IRP  X,<A>
							.IFB X
								TST -(P)
							.IFF
								.IF IDN X,#0
									CLR -(P)
								.IFF
									MOV X,-(P)
								.ENDC
							.ENDC
						.ENDM
							.IFB A
								TST -(P)
							.IFF
								.IF IDN A,#0
									CLR -(P)
								.IFF
	INQUIR	PALX 280	10/15/22  11:38:42	Page 56
	SITS;INQUIR 30	Page 11.4 	

	025726	010046							MOV A,-(P)
								.ENDC
							.ENDC
	025730	012700	000040			MOV #' ,A
	025734	021567	173032		2$:	CMP (F),CHARNO
	025740	003403				BLE 1$
	025742	004767	177630			JSR PC,TYO	
	025746	000772				BR 2$
					1$:	REST A
						.IRP X,<A>
							.IF B X
								TST (P)+
							.IFF
								MOV (P)+,X
							.ENDC
						.ENDM
							.IF B A
								TST (P)+
							.IFF
	025750	012600						MOV (P)+,A
							.ENDC
	025752	000207				RTS PC
					
					;PUT CARRIAGE AT MULTIPLE OF 32 POSTION
					TABOUT:	SAVE A
						.IRP  X,<A>
							.IFB X
								TST -(P)
							.IFF
								.IF IDN X,#0
									CLR -(P)
								.IFF
									MOV X,-(P)
								.ENDC
							.ENDC
						.ENDM
							.IFB A
								TST -(P)
							.IFF
								.IF IDN A,#0
									CLR -(P)
								.IFF
	025754	010046							MOV A,-(P)
								.ENDC
							.ENDC
	025756	012700	000040			MOV #' ,A
	025762	004767	177610		1$:	JSR PC,TYO
	025766	032767	000017	172776		BIT #17,CHARNO
	025774	001372				BNE 1$	
						REST A
						.IRP X,<A>
							.IF B X
								TST (P)+
							.IFF
	INQUIR	PALX 280	10/15/22  11:38:42	Page 57
	SITS;INQUIR 30	Page 11.5 	

								MOV (P)+,X
							.ENDC
						.ENDM
							.IF B A
								TST (P)+
							.IFF
	025776	012600						MOV (P)+,A
							.ENDC
	026000	000207				RTS PC
					
		022710			.END INQUIR
	INQUIR	PALX 280	10/15/22  11:38:42	Page 58
	SITS;INQUIR 30	Page 11 	***Symbol Table***      

	A	000000R		GETLI1	025470		RLNAM	021660		$SINK	104204H	
	ARGOT	023460		GETLI2	025456		SAME	024212		$SLEEP	104203H	
	ARGOT1	023464		GETLI3	025414		SLTYPE	025560		$SSTAT	104226H	
	B	000001R		GETLI4	025436		TABOUT	025754		$SYSJB	104233H	
	BACK	024154		GETLI5	025514		TBL1	022506		$TIME	104232H	
	BLOCK	020776		GETLI6	025546		TYI	025626		$TTGET	104212H	
	C	000002R		GETLI7	025420		TYO	025576		$TTGIV	104211H	
	CARPOS	025726		GETLIN	025412		TYPECR	024006		$VIDSW	104227H	
	CH	023512		GOOF	025146		TYPEI1	025676		$WRDI	104213H	
	CHANG	024260		GOUZR	023152		TYPEI2	025660		$WRDO	104214H	
	CHANG1	024264		GTARG1	023452		TYPEIT	025656		.ALLOC	104022H	
	CHANGE	023476		GTBLK1	025122		USED	020622		.BETF	000001H	
	CHARNO	020772		HELP	023564		USER1	023714		.BLKI	104017H	
	CHGFLG	022146		INQUI1	022776		USER2	023746		.BLKO	104020H	
	CHLOP0	024354		INQUIR	022710		USERS	023704		.BPTTF	000003H	
	CHLOP1	024274		LENGTH	020774		USRCAP	022154		.BYTI	104015H	
	CHNGND	024460		LOOP	024534		USRDIR	022156		.BYTO	104016H	
	CLOOP	023314		LOOP0	024576		UZRHER	020670		.CCCAP	000001H	
	CLOOPD	023332		LOOP2	024724		WFND	025046		.CLCAP	000010H	
	CMDLO1	023402		LOOP3	024636		WHOIS	023750		.CLCON	000400H	
	CMDLO2	023424		LPUSER	023602		WHOIS1	023760		.CMBIT	100000H	
	CMDLO3	023344		LUPE	025222		WHOIS2	023774		.CMBLU	000400H	
	CMDLOP	023342		LUPE1	025234		WHOIS3	024002		.CMCAP	000015H	
	CMDTAB	022540		LUPE2	025242		WLOOP	025072		.CMGRN	001000H	
	CONDIT	022140		LZRNAM	021640		WLOP	025060		.CMRED	002000H	
	CREATE	025310		MODE	020073		WLOP1	025066		.CPYCP	100400H	
	CRLF	025640		MUMBLE	025036		WSAME	024020		.CREX	002000H	
	D	000003R		NBLOCK	021320		WWRIT	024044		.CRPRI	004000H	
	DE	023534		NCMDS	000020H		WWRIT0	024050		.CRRD	000400H	
	DEFALT	020567		NEWLZR	024126		WWRIT1	024072		.CRUSR	104023H	
	DELET	024476		NEWMSG	020521		WWRIT2	024120		.CRWRT	001000H	
	DELETE	023520		NLFN	021316		WWRIT3	024076		.DELCP	100000H	
	DELFLG	022144		NOLPT	020745		$ALLOC	104222H		.DSCAP	000011H	
	DFALT	022120		NOLUZ	020722		$BLKI	104217H		.EAPEF	000001H	
	DIRNAM	020547		NQUIT	024770		$BLKO	104220H		.EBAC	000002H	
	DRNAM	022000		NQUIT1	024750		$BYTI	104215H		.EBAD	000003H	
	E	000004R		NWUZR	023072		$BYTO	104216H		.EBCN	000004H	
	EN	023556		NWUZR1	023200		$CRUSR	104223H		.EBCT	000005H	
	ENTER	023542		OK	024510		$FLOAT	104205H		.EBFN	000006H	
	ENTFLG	022142		OLFIL	022175		$FONT	104225H		.EBFUN	000007H	
	EXISTS	024220		OUTCAP	020770		$FORK	104201H		.EBPN	000010H	
	F	000005R		P	000006R		$GERRW	104231H		.ECDD	000011H	
	FILCPI	022150		PAT	022306		$GETID	104234H		.ECLF	000030H	
	FILCPO	022152		PATCH	022306		$INVOK	104206H		.EDEVE	000012H	
	FILLN0	020000		PC	000007R		$MAP	104221H		.EDFL	000013H	
	FILNAM	022166		PDL	022306		$MFPI	104235H		.EDRF	000014H	
	FINISH	024730		PPLNAM	020534		$NOOP	104200H		.EDSKE	000031H	
	FIRSTM	023232		PTBLK2	025212		$POOFF	104202H		.EDVBE	000032H	
	FRST	022204		PUTBLK	025164		$QULK	104207H		.EEAE	000015H	
	GETARG	023434		QUEST	020132		$QUNLK	104210H		.EFLOK	000016H	
	GETBLK	025102		QUIT	025702		$RDMAP	104224H		.EFNF	000017H	
	GETL10	025504		RIGHT	020026		$RUG	104230H		.EFNTL	000020H	
	INQUIR	PALX 280	10/15/22  11:38:42	Page 59
	SITS;INQUIR 30	Page 11 	***Symbol Table***      

	.EFTL	000021H		.PFIL	002000H		.TICTF	020000H		.TVDSX	000104H	
	.EMTTF	000005H		.PLENM	177770H		.TICTM	010000H		.TVFNT	000014H	
	.ENIS	000022H		.POOFF	104002H		.TICVM	000400H		.TVIOR	000001H	
	.ENIT	000023H		.PRCAP	000004H		.TIECM	000200H		.TVMAP	000107H	
	.ENSS	000024H		.PRERA	000024H		.TIEDM	000100H		.TVMOD	000023H	
	.ENUL	000000H		.PRERR	000022H		.TIME	104032H		.TVMOV	000003H	
	.ERNA	000025H		.PRFAU	000023H		.TIMGI	000010H		.TVOFF	000020H	
	.ERPEF	000026H		.PRFPE	000020H		.TIMGO	000020H		.TVREV	000010H	
	.ESYS	000027H		.PRFPS	000017H		.TIQF	000002H		.TVRFN	000021H	
	.FAAC	040000H		.PRFRE	000011H		.TIRBM	000040H		.TVSAV	000106H	
	.FAAD	005000H		.PRPSW	000010H		.TIRST	000001H		.TVSET	000017H	
	.FAAP	020000H		.PRRD	000000H		.TLIPM	001000H		.TVXOR	000002H	
	.FACAP	000006H		.PRREG	000000H		.TMORF	100000H		.VIABS	000000H	
	.FACF	000000H		.PRSTO	000021H		.TMORM	040000H		.VICAM	000003H	
	.FADI	011000H		.PRWRA	010000H		.TOEDM	000002H		.VIDSW	104027H	
	.FADIR	040000H		.PRWRT	000040H		.TORST	002000H		.VILOD	000002H	
	.FADL	004000H		.QUCAP	000007H		.TOTRN	000004H		.VILOT	000001H	
	.FAEOF	001000H		.QULK	104007H		.TPCAP	000013H		.WRDI	104013H	
	.FALB	100000H		.QUNLK	104010H		.TRCAP	000012H		.WRDO	104014H	
	.FALNK	100000H		.RDMAP	104024H		.TRPTF	000006H		.XXCAP	000000H	
	.FALOK	004000H		.RDOTF	000011H		.TSCRL	000001H	
	.FAMB	007000H		.RUG	104030H		.TTBC2	000016H	
	.FAMD	013000H		.SINK	104004H		.TTBIC	000002H	
	.FAMU	006000H		.SLEEP	104003H		.TTBIS	000001H	
	.FARD	004000H		.SLETF	000010H		.TTBRK	000007H	
	.FARE	001000H		.SPCAD	040000H		.TTBS2	000015H	
	.FARI	010000H		.SPCAP	000003H		.TTCAP	000005H	
	.FARP	003000H		.SPCLC	010000H		.TTCNO	000004H	
	.FARUT	010000H		.SPCLD	020000H		.TTEDM	001000H	
	.FASDL	012000H		.SPCLR	000001H		.TTGET	104012H	
	.FASP	002000H		.SPCRE	002000H		.TTGIV	104011H	
	.FAWD	002000H		.SPCRR	000400H		.TTHNG	000010H	
	.FAWT	010000H		.SPCRW	001000H		.TTIBK	000400H	
	.FLOAT	104005H		.SPENT	000010H		.TTMBK	010000H	
	.FONT	104025H		.SPFES	004000H		.TTMOV	000000H	
	.FORK	104001H		.SPGNP	000006H		.TTMV2	000011H	
	.FPPTF	000007H		.SPGPC	000007H		.TTPEK	000022H	
	.GERRW	104031H		.SPKIL	000002H		.TTRD	000003H	
	.GETID	104034H		.SPPGT	000005H		.TTSLN	000025H	
	.GIVCP	101000H		.SPPTP	000000H		.TTSPD	000012H	
	.ILLTF	000002H		.SPPTT	000000H		.TTTYP	000013H	
	.INVOK	104006H		.SPRCP	000001H		.TTWD	040000H	
	.IOTTF	000004H		.SPSMC	000013H		.TTWRT	000040H	
	.LPCAP	000014H		.SPSTP	000003H		.TTYI	020000H	
	.MAP	104021H		.SPSTR	000004H		.TTYO	010000H	
	.MFPI	104035H		.SPSTX	000011H		.TVATC	000005H	
	.MSCAP	000002H		.SPSTY	000012H		.TVCL	000006H	
	.NOOP	104000H		.SSTAT	104026H		.TVDSC	000105H	
	.NXMTF	000012H		.SYSJB	104033H		.TVDSI	000103H	
	.PABS	040000H		.TAKCP	101400H		.TVDSN	000102H	
	.PACCM	174377H		.TBRAK	000024H		.TVDSR	000100H	
	.PDEI	100000H		.TERST	004000H		.TVDSS	000101H	
	INQUIR	PALX 280	10/15/22  11:38:42	Page 60
	SITS;INQUIR 30	Page 11 	***Symbol Table***      


1.5 Words Average Instruction Length

0 Seconds Runtime
